; Function Attrs: nounwind uwtable
define ptr @Lpk_MapPrimeInternal(ptr noundef %0, ptr noundef readonly captures(none) %1) local_unnamed_addr #0 {
  %.val = load i32, ptr %1, align 8, !tbaa !3
  %.not = icmp eq i32 %.val, 0
  br i1 %.not, label %5, label %3

3:                                                ; preds = %2
  %4 = getelementptr i8, ptr %0, i64 16
  br label %56

5:                                                ; preds = %2
  %6 = getelementptr i8, ptr %1, i64 4
  %.val27 = load i32, ptr %6, align 4, !tbaa !11
  %7 = getelementptr i8, ptr %1, i64 24
  %.val28 = load i32, ptr %7, align 8
  %8 = lshr i32 %.val28, 1
  %9 = and i32 %8, 1073741823
  %.not34 = icmp ult i32 %9, %.val27
  br i1 %.not34, label %15, label %.preheader

.preheader:                                       ; preds = %5
  %10 = getelementptr inbounds nuw i8, ptr %1, i64 8
  %11 = load i32, ptr %10, align 8, !tbaa !12
  %12 = icmp slt i32 %.val27, %11
  br i1 %12, label %.lr.ph, label %.critedge

.lr.ph:                                           ; preds = %.preheader
  %13 = getelementptr i8, ptr %1, i64 16
  %14 = zext nneg i32 %.val27 to i64
  br label %19

15:                                               ; preds = %5
  %16 = getelementptr i8, ptr %1, i64 16
  %.val32 = load ptr, ptr %16, align 8, !tbaa !13
  %17 = zext nneg i32 %9 to i64
  %18 = getelementptr inbounds nuw %struct.Kit_Node_t_, ptr %.val32, i64 %17, i32 2
  br label %56

19:                                               ; preds = %.lr.ph, %19
  %indvars.iv = phi i64 [ %14, %.lr.ph ], [ %indvars.iv.next, %19 ]
  %.val29 = load ptr, ptr %13, align 8, !tbaa !13
  %20 = getelementptr inbounds nuw %struct.Kit_Node_t_, ptr %.val29, i64 %indvars.iv
  %21 = load i32, ptr %20, align 8
  %22 = lshr i32 %21, 1
  %23 = and i32 %22, 1073741823
  %24 = zext nneg i32 %23 to i64
  %25 = getelementptr inbounds nuw %struct.Kit_Node_t_, ptr %.val29, i64 %24, i32 2
  %26 = load ptr, ptr %25, align 8, !tbaa !14
  %27 = getelementptr inbounds nuw i8, ptr %20, i64 4
  %28 = load i32, ptr %27, align 4
  %29 = lshr i32 %28, 1
  %30 = and i32 %29, 1073741823
  %31 = zext nneg i32 %30 to i64
  %32 = getelementptr inbounds nuw %struct.Kit_Node_t_, ptr %.val29, i64 %31, i32 2
  %33 = load ptr, ptr %32, align 8, !tbaa !14
  %34 = ptrtoint ptr %26 to i64
  %35 = and i64 %34, -2
  %36 = trunc i64 %34 to i32
  %37 = xor i32 %21, %36
  %38 = and i32 %37, 1
  %39 = zext nneg i32 %38 to i64
  %40 = or disjoint i64 %35, %39
  %41 = inttoptr i64 %40 to ptr
  %42 = ptrtoint ptr %33 to i64
  %43 = and i64 %42, -2
  %44 = trunc i64 %42 to i32
  %45 = xor i32 %28, %44
  %46 = and i32 %45, 1
  %47 = zext nneg i32 %46 to i64
  %48 = or disjoint i64 %43, %47
  %49 = inttoptr i64 %48 to ptr
  %50 = tail call ptr @If_ManCreateAnd(ptr noundef %0, ptr noundef %41, ptr noundef %49) #3
  %51 = getelementptr inbounds nuw i8, ptr %20, i64 8
  store ptr %50, ptr %51, align 8, !tbaa !14
  %indvars.iv.next = add nuw nsw i64 %indvars.iv, 1
  %52 = load i32, ptr %10, align 8, !tbaa !12
  %53 = sext i32 %52 to i64
  %54 = icmp slt i64 %indvars.iv.next, %53
  br i1 %54, label %19, label %.critedge, !llvm.loop !15

.critedge:                                        ; preds = %19, %.preheader
  %.024.lcssa = phi ptr [ null, %.preheader ], [ %20, %19 ]
  %55 = getelementptr inbounds nuw i8, ptr %.024.lcssa, i64 8
  br label %56

56:                                               ; preds = %.critedge, %15, %3
  %.023.in = phi ptr [ %4, %3 ], [ %18, %15 ], [ %55, %.critedge ]
  %.023 = load ptr, ptr %.023.in, align 8, !tbaa !14
  ret ptr %.023
}